; Function Attrs: mustprogress nofree norecurse nosync nounwind willreturn memory(argmem: readwrite) uwtable
define noundef i32 @wolfSSL_CTX_AllowEncryptThenMac(ptr noundef captures(none) %0, i32 noundef %1) local_unnamed_addr #4 {
  %.not = icmp eq i32 %1, 0
  %3 = getelementptr inbounds nuw i8, ptr %0, i64 173
  %4 = load i8, ptr %3, align 1
  %5 = select i1 %.not, i8 32, i8 0
  %6 = and i8 %4, -33
  %7 = or disjoint i8 %6, %5
  store i8 %7, ptr %3, align 1
  ret i32 1
}